; Function Attrs: mustprogress uwtable
define internal noundef ptr @"_ZZN4pkpy12add_module_cEPNS_2VMEEN4$_408__invokeES1_NS_8ArgsViewE"(ptr noundef %0, ptr nocapture readonly %1, ptr nocapture readnone %2) #3 align 2 {
  %4 = alloca i64, align 8
  %5 = load ptr, ptr %1, align 8
  %6 = getelementptr inbounds i8, ptr %5, i64 24
  %7 = load ptr, ptr %6, align 8
  call void @llvm.lifetime.start.p0(i64 8, ptr nonnull %4)
  %8 = load i32, ptr %7, align 4
  %9 = sext i32 %8 to i64
  store i64 %9, ptr %4, align 8
  %10 = icmp sgt i32 %8, -1
  br i1 %10, label %11, label %15

11:                                               ; preds = %3
  %12 = shl nuw nsw i64 %9, 2
  %13 = or disjoint i64 %12, 2
  %14 = inttoptr i64 %13 to ptr
  br label %"_ZZN4pkpy12add_module_cEPNS_2VMEENK4$_40clES1_NS_8ArgsViewE.exit"

15:                                               ; preds = %3
  %16 = getelementptr inbounds i8, ptr %0, i64 16
  %17 = call noundef ptr @_ZN4pkpy11ManagedHeap5gcnewIlJRlEEEPNS_8PyObjectENS_4TypeEDpOT0_(ptr noundef nonnull align 8 dereferenceable(84) %16, i16 2, ptr noundef nonnull align 8 dereferenceable(8) %4)
  br label %"_ZZN4pkpy12add_module_cEPNS_2VMEENK4$_40clES1_NS_8ArgsViewE.exit"

"_ZZN4pkpy12add_module_cEPNS_2VMEENK4$_40clES1_NS_8ArgsViewE.exit": ; preds = %11, %15
  %.0.i.i = phi ptr [ %14, %11 ], [ %17, %15 ]
  call void @llvm.lifetime.end.p0(i64 8, ptr nonnull %4)
  ret ptr %.0.i.i
}